; Function Attrs: mustprogress nofree norecurse nosync nounwind willreturn memory(argmem: readwrite) uwtable
define dso_local void @_ZN11btRigidBody10setGravityERK9btVector3(ptr nocapture noundef nonnull align 8 dereferenceable(744) %this, ptr nocapture noundef nonnull readonly align 4 dereferenceable(16) %acceleration) local_unnamed_addr #6 align 2 {
entry:
  %m_inverseMass = getelementptr inbounds i8, ptr %this, i64 452
  %0 = load float, ptr %m_inverseMass, align 4
  %cmp = fcmp une float %0, 0.000000e+00
  br i1 %cmp, label %if.then, label %if.end

if.then:                                          ; preds = %entry
  %div = fdiv float 1.000000e+00, %0
  %1 = load <2 x float>, ptr %acceleration, align 4
  %2 = insertelement <2 x float> poison, float %div, i64 0
  %3 = shufflevector <2 x float> %2, <2 x float> poison, <2 x i32> zeroinitializer
  %4 = fmul <2 x float> %3, %1
  %arrayidx7.i = getelementptr inbounds i8, ptr %acceleration, i64 8
  %5 = load float, ptr %arrayidx7.i, align 4
  %mul8.i = fmul float %div, %5
  %retval.sroa.3.12.vec.insert.i = insertelement <2 x float> <float poison, float 0.000000e+00>, float %mul8.i, i64 0
  %m_gravity = getelementptr inbounds i8, ptr %this, i64 472
  store <2 x float> %4, ptr %m_gravity, align 8
  %ref.tmp.sroa.2.0.m_gravity.sroa_idx = getelementptr inbounds i8, ptr %this, i64 480
  store <2 x float> %retval.sroa.3.12.vec.insert.i, ptr %ref.tmp.sroa.2.0.m_gravity.sroa_idx, align 8
  br label %if.end

if.end:                                           ; preds = %if.then, %entry
  %m_gravity_acceleration = getelementptr inbounds i8, ptr %this, i64 488
  tail call void @llvm.memcpy.p0.p0.i64(ptr noundef nonnull align 8 dereferenceable(16) %m_gravity_acceleration, ptr noundef nonnull align 4 dereferenceable(16) %acceleration, i64 16, i1 false)
  ret void
}